target datalayout = "e-m:e-p270:32:32-p271:32:32-p272:64:64-i64:64-i128:128-f80:128-n8:16:32:64-S128"
target triple = "x86_64-pc-linux-gnu"

%"class.llvm::StringRef" = type { ptr, i64 }
%"class.llvm::ArrayRef.289" = type { ptr, i64 }

; Function Attrs: mustprogress nounwind uwtable
define linkonce_odr hidden noundef ptr @_ZN4llvm7MDTuple3getERNS_11LLVMContextENS_8ArrayRefIPNS_8MetadataEEE(ptr noundef nonnull align 8 dereferenceable(8) %0, ptr %1, i64 %2) #1 comdat align 2 {
  %4 = alloca %"class.llvm::ArrayRef.289", align 8
  %5 = alloca ptr, align 8
  %6 = alloca %"class.llvm::ArrayRef.289", align 8
  %7 = getelementptr inbounds nuw { ptr, i64 }, ptr %4, i32 0, i32 0
  store ptr %1, ptr %7, align 8
  %8 = getelementptr inbounds nuw { ptr, i64 }, ptr %4, i32 0, i32 1
  store i64 %2, ptr %8, align 8
  store ptr %0, ptr %5, align 8
  %9 = load ptr, ptr %5, align 8
  call void @llvm.memcpy.p0.p0.i64(ptr align 8 %6, ptr align 8 %4, i64 16, i1 false)
  %10 = getelementptr inbounds nuw { ptr, i64 }, ptr %6, i32 0, i32 0
  %11 = load ptr, ptr %10, align 8
  %12 = getelementptr inbounds nuw { ptr, i64 }, ptr %6, i32 0, i32 1
  %13 = load i64, ptr %12, align 8
  %14 = call noundef ptr @_ZN4llvm7MDTuple7getImplERNS_11LLVMContextENS_8ArrayRefIPNS_8MetadataEEENS4_11StorageTypeEb(ptr noundef nonnull align 8 dereferenceable(8) %9, ptr %11, i64 %13, i32 noundef 0, i1 noundef zeroext true)
  ret ptr %14
}

; Function Attrs: mustprogress nounwind uwtable
define linkonce_odr hidden noundef ptr @_ZNK4llvm9StringRef4dataEv(ptr noundef nonnull align 8 dereferenceable(16) %0) #1 comdat align 2 {
  %2 = alloca ptr, align 8
  store ptr %0, ptr %2, align 8
  %3 = load ptr, ptr %2, align 8
  %4 = getelementptr inbounds nuw %"class.llvm::StringRef", ptr %3, i32 0, i32 0
  %5 = load ptr, ptr %4, align 8
  ret ptr %5
}

; Function Attrs: mustprogress nounwind uwtable
define linkonce_odr hidden noundef zeroext i1 @_ZNK4llvm9StringRef5emptyEv(ptr noundef nonnull align 8 dereferenceable(16) %0) #1 comdat align 2 {
  %2 = alloca ptr, align 8
  store ptr %0, ptr %2, align 8
  %3 = load ptr, ptr %2, align 8
  %4 = getelementptr inbounds nuw %"class.llvm::StringRef", ptr %3, i32 0, i32 1
  %5 = load i64, ptr %4, align 8
  %6 = icmp eq i64 %5, 0
  ret i1 %6
}

; Function Attrs: mustprogress nounwind uwtable
define linkonce_odr hidden noundef i64 @_ZNK4llvm9StringRef4sizeEv(ptr noundef nonnull align 8 dereferenceable(16) %0) #1 comdat align 2 {
  %2 = alloca ptr, align 8
  store ptr %0, ptr %2, align 8
  %3 = load ptr, ptr %2, align 8
  %4 = getelementptr inbounds nuw %"class.llvm::StringRef", ptr %3, i32 0, i32 1
  %5 = load i64, ptr %4, align 8
  ret i64 %5
}

; Function Attrs: mustprogress nounwind uwtable
define linkonce_odr hidden noundef ptr @_ZN4llvm6MDNode3getERNS_11LLVMContextENS_8ArrayRefIPNS_8MetadataEEE(ptr noundef nonnull align 8 dereferenceable(8) %0, ptr %1, i64 %2) #1 comdat align 2 {
  %4 = alloca %"class.llvm::ArrayRef.289", align 8
  %5 = alloca ptr, align 8
  %6 = alloca %"class.llvm::ArrayRef.289", align 8
  %7 = getelementptr inbounds nuw { ptr, i64 }, ptr %4, i32 0, i32 0
  store ptr %1, ptr %7, align 8
  %8 = getelementptr inbounds nuw { ptr, i64 }, ptr %4, i32 0, i32 1
  store i64 %2, ptr %8, align 8
  store ptr %0, ptr %5, align 8
  %9 = load ptr, ptr %5, align 8
  call void @llvm.memcpy.p0.p0.i64(ptr align 8 %6, ptr align 8 %4, i64 16, i1 false)
  %10 = getelementptr inbounds nuw { ptr, i64 }, ptr %6, i32 0, i32 0
  %11 = load ptr, ptr %10, align 8
  %12 = getelementptr inbounds nuw { ptr, i64 }, ptr %6, i32 0, i32 1
  %13 = load i64, ptr %12, align 8
  %14 = call noundef ptr @_ZN4llvm7MDTuple3getERNS_11LLVMContextENS_8ArrayRefIPNS_8MetadataEEE(ptr noundef nonnull align 8 dereferenceable(8) %9, ptr %11, i64 %13)
  ret ptr %14
}

; Function Attrs: mustprogress nounwind uwtable
define linkonce_odr hidden void @_ZN4llvm8ArrayRefIPNS_8MetadataEEC2ERKS2_(ptr noundef nonnull align 8 dereferenceable(16) %0, ptr noundef nonnull align 8 dereferenceable(8) %1) unnamed_addr #1 comdat align 2 {
  %3 = alloca ptr, align 8
  %4 = alloca ptr, align 8
  store ptr %0, ptr %3, align 8
  store ptr %1, ptr %4, align 8
  %5 = load ptr, ptr %3, align 8
  %6 = getelementptr inbounds nuw %"class.llvm::ArrayRef.289", ptr %5, i32 0, i32 0
  %7 = load ptr, ptr %4, align 8
  store ptr %7, ptr %6, align 8
  %8 = getelementptr inbounds nuw %"class.llvm::ArrayRef.289", ptr %5, i32 0, i32 1
  store i64 1, ptr %8, align 8
  ret void
}

; Function Attrs: mustprogress nounwind uwtable
define linkonce_odr hidden noundef zeroext i1 @_ZN4llvmeqENS_9StringRefES0_(ptr %0, i64 %1, ptr %2, i64 %3) #1 comdat {
  %5 = alloca i1, align 1
  %6 = alloca %"class.llvm::StringRef", align 8
  %7 = alloca %"class.llvm::StringRef", align 8
  %8 = getelementptr inbounds nuw { ptr, i64 }, ptr %6, i32 0, i32 0
  store ptr %0, ptr %8, align 8
  %9 = getelementptr inbounds nuw { ptr, i64 }, ptr %6, i32 0, i32 1
  store i64 %1, ptr %9, align 8
  %10 = getelementptr inbounds nuw { ptr, i64 }, ptr %7, i32 0, i32 0
  store ptr %2, ptr %10, align 8
  %11 = getelementptr inbounds nuw { ptr, i64 }, ptr %7, i32 0, i32 1
  store i64 %3, ptr %11, align 8
  %12 = call noundef i64 @_ZNK4llvm9StringRef4sizeEv(ptr noundef nonnull align 8 dereferenceable(16) %6)
  %13 = call noundef i64 @_ZNK4llvm9StringRef4sizeEv(ptr noundef nonnull align 8 dereferenceable(16) %7)
  %14 = icmp ne i64 %12, %13
  br i1 %14, label %15, label %16

15:                                               ; preds = %4
  store i1 false, ptr %5, align 1
  br label %25

16:                                               ; preds = %4
  %17 = call noundef zeroext i1 @_ZNK4llvm9StringRef5emptyEv(ptr noundef nonnull align 8 dereferenceable(16) %6)
  br i1 %17, label %18, label %19

18:                                               ; preds = %16
  store i1 true, ptr %5, align 1
  br label %25

19:                                               ; preds = %16
  %20 = call noundef ptr @_ZNK4llvm9StringRef4dataEv(ptr noundef nonnull align 8 dereferenceable(16) %6)
  %21 = call noundef ptr @_ZNK4llvm9StringRef4dataEv(ptr noundef nonnull align 8 dereferenceable(16) %7)
  %22 = call noundef i64 @_ZNK4llvm9StringRef4sizeEv(ptr noundef nonnull align 8 dereferenceable(16) %6)
  %23 = call i32 @memcmp(ptr noundef %20, ptr noundef %21, i64 noundef %22) #18
  %24 = icmp eq i32 %23, 0
  store i1 %24, ptr %5, align 1
  br label %25

25:                                               ; preds = %19, %18, %15
  %26 = load i1, ptr %5, align 1
  ret i1 %26
}

; Function Attrs: mustprogress nounwind uwtable
define internal void @_ZN4llvmL21createPGONameMetadataERNS_12GlobalObjectENS_9StringRefES2_(ptr noundef nonnull align 8 dereferenceable(56) %0, ptr %1, i64 %2, ptr %3, i64 %4) #1 {
  %6 = alloca %"class.llvm::StringRef", align 8
  %7 = alloca %"class.llvm::StringRef", align 8
  %8 = alloca ptr, align 8
  %9 = alloca %"class.llvm::StringRef", align 8
  %10 = alloca %"class.llvm::StringRef", align 8
  %11 = alloca %"class.llvm::StringRef", align 8
  %12 = alloca ptr, align 8
  %13 = alloca ptr, align 8
  %14 = alloca %"class.llvm::ArrayRef.289", align 8
  %15 = alloca ptr, align 8
  %16 = alloca %"class.llvm::StringRef", align 8
  %17 = alloca %"class.llvm::StringRef", align 8
  %18 = getelementptr inbounds nuw { ptr, i64 }, ptr %6, i32 0, i32 0
  store ptr %1, ptr %18, align 8
  %19 = getelementptr inbounds nuw { ptr, i64 }, ptr %6, i32 0, i32 1
  store i64 %2, ptr %19, align 8
  %20 = getelementptr inbounds nuw { ptr, i64 }, ptr %7, i32 0, i32 0
  store ptr %3, ptr %20, align 8
  %21 = getelementptr inbounds nuw { ptr, i64 }, ptr %7, i32 0, i32 1
  store i64 %4, ptr %21, align 8
  store ptr %0, ptr %8, align 8
  %22 = load ptr, ptr %8, align 8
  %23 = call { ptr, i64 } @_ZNK4llvm5Value7getNameEv(ptr noundef nonnull align 8 dereferenceable(24) %22)
  %24 = getelementptr inbounds nuw { ptr, i64 }, ptr %9, i32 0, i32 0
  %25 = extractvalue { ptr, i64 } %23, 0
  store ptr %25, ptr %24, align 8
  %26 = getelementptr inbounds nuw { ptr, i64 }, ptr %9, i32 0, i32 1
  %27 = extractvalue { ptr, i64 } %23, 1
  store i64 %27, ptr %26, align 8
  call void @llvm.memcpy.p0.p0.i64(ptr align 8 %10, ptr align 8 %7, i64 16, i1 false)
  %28 = getelementptr inbounds nuw { ptr, i64 }, ptr %9, i32 0, i32 0
  %29 = load ptr, ptr %28, align 8
  %30 = getelementptr inbounds nuw { ptr, i64 }, ptr %9, i32 0, i32 1
  %31 = load i64, ptr %30, align 8
  %32 = getelementptr inbounds nuw { ptr, i64 }, ptr %10, i32 0, i32 0
  %33 = load ptr, ptr %32, align 8
  %34 = getelementptr inbounds nuw { ptr, i64 }, ptr %10, i32 0, i32 1
  %35 = load i64, ptr %34, align 8
  %36 = call noundef zeroext i1 @_ZN4llvmeqENS_9StringRefES0_(ptr %29, i64 %31, ptr %33, i64 %35)
  br i1 %36, label %37, label %38

37:                                               ; preds = %5
  br label %68

38:                                               ; preds = %5
  %39 = load ptr, ptr %8, align 8
  call void @llvm.memcpy.p0.p0.i64(ptr align 8 %11, ptr align 8 %6, i64 16, i1 false)
  %40 = getelementptr inbounds nuw { ptr, i64 }, ptr %11, i32 0, i32 0
  %41 = load ptr, ptr %40, align 8
  %42 = getelementptr inbounds nuw { ptr, i64 }, ptr %11, i32 0, i32 1
  %43 = load i64, ptr %42, align 8
  %44 = call noundef ptr @_ZNK4llvm5Value11getMetadataENS_9StringRefE(ptr noundef nonnull align 8 dereferenceable(24) %39, ptr %41, i64 %43)
  %45 = icmp ne ptr %44, null
  br i1 %45, label %46, label %47

46:                                               ; preds = %38
  br label %68

47:                                               ; preds = %38
  %48 = load ptr, ptr %8, align 8
  %49 = call noundef nonnull align 8 dereferenceable(8) ptr @_ZNK4llvm5Value10getContextEv(ptr noundef nonnull align 8 dereferenceable(24) %48)
  store ptr %49, ptr %12, align 8
  %50 = load ptr, ptr %12, align 8
  %51 = load ptr, ptr %12, align 8
  call void @llvm.memcpy.p0.p0.i64(ptr align 8 %16, ptr align 8 %7, i64 16, i1 false)
  %52 = getelementptr inbounds nuw { ptr, i64 }, ptr %16, i32 0, i32 0
  %53 = load ptr, ptr %52, align 8
  %54 = getelementptr inbounds nuw { ptr, i64 }, ptr %16, i32 0, i32 1
  %55 = load i64, ptr %54, align 8
  %56 = call noundef ptr @_ZN4llvm8MDString3getERNS_11LLVMContextENS_9StringRefE(ptr noundef nonnull align 8 dereferenceable(8) %51, ptr %53, i64 %55)
  store ptr %56, ptr %15, align 8
  call void @_ZN4llvm8ArrayRefIPNS_8MetadataEEC2ERKS2_(ptr noundef nonnull align 8 dereferenceable(16) %14, ptr noundef nonnull align 8 dereferenceable(8) %15)
  %57 = getelementptr inbounds nuw { ptr, i64 }, ptr %14, i32 0, i32 0
  %58 = load ptr, ptr %57, align 8
  %59 = getelementptr inbounds nuw { ptr, i64 }, ptr %14, i32 0, i32 1
  %60 = load i64, ptr %59, align 8
  %61 = call noundef ptr @_ZN4llvm6MDNode3getERNS_11LLVMContextENS_8ArrayRefIPNS_8MetadataEEE(ptr noundef nonnull align 8 dereferenceable(8) %50, ptr %58, i64 %60)
  store ptr %61, ptr %13, align 8
  %62 = load ptr, ptr %8, align 8
  call void @llvm.memcpy.p0.p0.i64(ptr align 8 %17, ptr align 8 %6, i64 16, i1 false)
  %63 = load ptr, ptr %13, align 8
  %64 = getelementptr inbounds nuw { ptr, i64 }, ptr %17, i32 0, i32 0
  %65 = load ptr, ptr %64, align 8
  %66 = getelementptr inbounds nuw { ptr, i64 }, ptr %17, i32 0, i32 1
  %67 = load i64, ptr %66, align 8
  call void @_ZN4llvm5Value11setMetadataENS_9StringRefEPNS_6MDNodeE(ptr noundef nonnull align 8 dereferenceable(24) %62, ptr %65, i64 %67, ptr noundef %63)
  br label %68

68:                                               ; preds = %47, %46, %37
  ret void
}