; Function Attrs: mustprogress nounwind uwtable
define internal fastcc void @_ZN4llvmL21createPGONameMetadataERNS_12GlobalObjectENS_9StringRefES2_(ptr noundef nonnull align 8 dereferenceable(56) %0, ptr %1, i64 %2, ptr %3, i64 %4) unnamed_addr #0 {
  %6 = alloca ptr, align 8
  %7 = tail call { ptr, i64 } @_ZNK4llvm5Value7getNameEv(ptr noundef nonnull align 8 dereferenceable(24) %0) #28
  %8 = extractvalue { ptr, i64 } %7, 0
  %9 = extractvalue { ptr, i64 } %7, 1
  %.not.i = icmp eq i64 %9, %4
  br i1 %.not.i, label %10, label %_ZN4llvmeqENS_9StringRefES0_.exit.thread21

10:                                               ; preds = %5
  %11 = icmp eq i64 %4, 0
  br i1 %11, label %_ZN4llvmeqENS_9StringRefES0_.exit.thread, label %_ZN4llvmeqENS_9StringRefES0_.exit

_ZN4llvmeqENS_9StringRefES0_.exit:                ; preds = %10
  %bcmp.i = tail call i32 @bcmp(ptr %8, ptr %3, i64 %4)
  %12 = icmp eq i32 %bcmp.i, 0
  br i1 %12, label %_ZN4llvmeqENS_9StringRefES0_.exit.thread, label %_ZN4llvmeqENS_9StringRefES0_.exit.thread21

_ZN4llvmeqENS_9StringRefES0_.exit.thread21:       ; preds = %5, %_ZN4llvmeqENS_9StringRefES0_.exit
  %13 = tail call noundef ptr @_ZNK4llvm5Value11getMetadataENS_9StringRefE(ptr noundef nonnull align 8 dereferenceable(24) %0, ptr %1, i64 %2) #28
  %.not = icmp eq ptr %13, null
  br i1 %.not, label %14, label %_ZN4llvmeqENS_9StringRefES0_.exit.thread

14:                                               ; preds = %_ZN4llvmeqENS_9StringRefES0_.exit.thread21
  %15 = tail call noundef nonnull align 8 dereferenceable(8) ptr @_ZNK4llvm5Value10getContextEv(ptr noundef nonnull align 8 dereferenceable(24) %0) #28
  %16 = tail call noundef ptr @_ZN4llvm8MDString3getERNS_11LLVMContextENS_9StringRefE(ptr noundef nonnull align 8 dereferenceable(8) %15, ptr %3, i64 %4) #28
  store ptr %16, ptr %6, align 8
  %17 = call noundef ptr @_ZN4llvm7MDTuple7getImplERNS_11LLVMContextENS_8ArrayRefIPNS_8MetadataEEENS4_11StorageTypeEb(ptr noundef nonnull align 8 dereferenceable(8) %15, ptr nonnull %6, i64 1, i32 noundef 0, i1 noundef zeroext true) #28
  call void @_ZN4llvm5Value11setMetadataENS_9StringRefEPNS_6MDNodeE(ptr noundef nonnull align 8 dereferenceable(24) %0, ptr %1, i64 %2, ptr noundef %17) #28
  br label %_ZN4llvmeqENS_9StringRefES0_.exit.thread

_ZN4llvmeqENS_9StringRefES0_.exit.thread:         ; preds = %10, %_ZN4llvmeqENS_9StringRefES0_.exit.thread21, %_ZN4llvmeqENS_9StringRefES0_.exit, %14
  ret void
}